; Function Attrs: mustprogress nounwind uwtable
define dso_local void @_ZN4llvm3vfs21RedirectingFileSystem17setOverlayFileDirENS_9StringRefE(ptr noundef nonnull align 8 dereferenceable(128) %0, ptr %1, i64 %2) local_unnamed_addr #0 align 2 {
  %4 = alloca %"class.std::allocator", align 1
  %5 = alloca %"class.std::__cxx11::basic_string", align 8
  call void @llvm.lifetime.start.p0(i64 1, ptr nonnull %4)
  %.not.i = icmp eq ptr %1, null
  br i1 %.not.i, label %6, label %7

6:                                                ; preds = %3
  call void @_ZNSt7__cxx1112basic_stringIcSt11char_traitsIcESaIcEEC1Ev(ptr noundef nonnull align 8 dereferenceable(32) %5) #27
  br label %_ZNK4llvm9StringRef3strB5cxx11Ev.exit

7:                                                ; preds = %3
  call void @_ZNSaIcEC1Ev(ptr noundef nonnull align 1 dereferenceable(1) %4) #27, !noalias !166
  call void @_ZNSt7__cxx1112basic_stringIcSt11char_traitsIcESaIcEEC1EPKcmRKS3_(ptr noundef nonnull align 8 dereferenceable(32) %5, ptr noundef nonnull %1, i64 noundef %2, ptr noundef nonnull align 1 dereferenceable(1) %4) #27
  call void @_ZNSaIcED1Ev(ptr noundef nonnull align 1 dereferenceable(1) %4) #27
  br label %_ZNK4llvm9StringRef3strB5cxx11Ev.exit

_ZNK4llvm9StringRef3strB5cxx11Ev.exit:            ; preds = %6, %7
  call void @llvm.lifetime.end.p0(i64 1, ptr nonnull %4)
  %8 = getelementptr inbounds nuw i8, ptr %0, i64 80
  %9 = call noundef nonnull align 8 dereferenceable(32) ptr @_ZNSt7__cxx1112basic_stringIcSt11char_traitsIcESaIcEEaSEOS4_(ptr noundef nonnull align 8 dereferenceable(32) %8, ptr noundef nonnull align 8 dereferenceable(32) %5) #27
  call void @_ZNSt7__cxx1112basic_stringIcSt11char_traitsIcESaIcEED1Ev(ptr noundef nonnull align 8 dereferenceable(32) %5) #27
  ret void
}